target datalayout = "e-m:e-p270:32:32-p271:32:32-p272:64:64-i64:64-i128:128-f80:128-n8:16:32:64-S128"
target triple = "x86_64-pc-linux-gnu"

%struct.TypeCacheEntry = type { i32, i32, i16, i8, i8, i8, i8, i32, i32, i32, i32, i32, i32, i32, i32, i32, i32, i32, i32, i32, i32, %struct.FmgrInfo, %struct.FmgrInfo, %struct.FmgrInfo, %struct.FmgrInfo, ptr, i64, ptr, i32, i32, %struct.FmgrInfo, %struct.FmgrInfo, %struct.FmgrInfo, ptr, i32, i32, ptr, i32, ptr, ptr }
%struct.FmgrInfo = type { ptr, i32, i16, i8, i8, i8, ptr, ptr, ptr }
%struct.HASH_SEQ_STATUS = type { ptr, i32, ptr, i8, i32 }
%struct.RelIdToTypeIdCacheEntry = type { i32, i32 }
%struct.TupleDescData = type { i32, i32, i32, i32, ptr, [0 x %struct.CompactAttribute] }
%struct.CompactAttribute = type { i32, i16, i8, i8, i8, i8, i8, i8, i8 }

@TypeCacheHash = internal global ptr null, align 8
@RelIdToTypeIdCacheHash = internal global ptr null, align 8
@firstDomainTypeEntry = internal global ptr null, align 8

; Function Attrs: nounwind uwtable
define internal void @delete_rel_type_cache_if_needed(ptr noundef %0) #0 {
  %2 = alloca ptr, align 8
  %3 = alloca i8, align 1
  store ptr %0, ptr %2, align 8
  %4 = load ptr, ptr %2, align 8
  %5 = getelementptr inbounds nuw %struct.TypeCacheEntry, ptr %4, i32 0, i32 6
  %6 = load i8, ptr %5, align 1
  %7 = sext i8 %6 to i32
  %8 = icmp ne i32 %7, 99
  br i1 %8, label %9, label %10

9:                                                ; preds = %1
  br label %33

10:                                               ; preds = %1
  %11 = load ptr, ptr %2, align 8
  %12 = getelementptr inbounds nuw %struct.TypeCacheEntry, ptr %11, i32 0, i32 37
  %13 = load i32, ptr %12, align 8
  %14 = and i32 %13, 1
  %15 = icmp ne i32 %14, 0
  br i1 %15, label %32, label %16

16:                                               ; preds = %10
  %17 = load ptr, ptr %2, align 8
  %18 = getelementptr inbounds nuw %struct.TypeCacheEntry, ptr %17, i32 0, i32 37
  %19 = load i32, ptr %18, align 8
  %20 = and i32 %19, -1572866
  %21 = icmp ne i32 %20, 0
  br i1 %21, label %32, label %22

22:                                               ; preds = %16
  %23 = load ptr, ptr %2, align 8
  %24 = getelementptr inbounds nuw %struct.TypeCacheEntry, ptr %23, i32 0, i32 25
  %25 = load ptr, ptr %24, align 8
  %26 = icmp eq ptr %25, null
  br i1 %26, label %27, label %32

27:                                               ; preds = %22
  call void @llvm.lifetime.start.p0(i64 1, ptr %3) #11
  %28 = load ptr, ptr @RelIdToTypeIdCacheHash, align 8
  %29 = load ptr, ptr %2, align 8
  %30 = getelementptr inbounds nuw %struct.TypeCacheEntry, ptr %29, i32 0, i32 7
  %31 = call ptr @hash_search(ptr noundef %28, ptr noundef %30, i32 noundef 2, ptr noundef %3)
  call void @llvm.lifetime.end.p0(i64 1, ptr %3) #11
  br label %33

32:                                               ; preds = %22, %16, %10
  br label %33

33:                                               ; preds = %9, %32, %27
  ret void
}

; Function Attrs: nounwind uwtable
define internal void @InvalidateCompositeTypeCacheEntry(ptr noundef %0) #0 {
  %2 = alloca ptr, align 8
  %3 = alloca i8, align 1
  store ptr %0, ptr %2, align 8
  call void @llvm.lifetime.start.p0(i64 1, ptr %3) #11
  %4 = load ptr, ptr %2, align 8
  %5 = getelementptr inbounds nuw %struct.TypeCacheEntry, ptr %4, i32 0, i32 25
  %6 = load ptr, ptr %5, align 8
  %7 = icmp ne ptr %6, null
  br i1 %7, label %14, label %8

8:                                                ; preds = %1
  %9 = load ptr, ptr %2, align 8
  %10 = getelementptr inbounds nuw %struct.TypeCacheEntry, ptr %9, i32 0, i32 37
  %11 = load i32, ptr %10, align 8
  %12 = and i32 %11, -1572866
  %13 = icmp ne i32 %12, 0
  br label %14

14:                                               ; preds = %8, %1
  %15 = phi i1 [ true, %1 ], [ %13, %8 ]
  %16 = zext i1 %15 to i8
  store i8 %16, ptr %3, align 1
  %17 = load ptr, ptr %2, align 8
  %18 = getelementptr inbounds nuw %struct.TypeCacheEntry, ptr %17, i32 0, i32 25
  %19 = load ptr, ptr %18, align 8
  %20 = icmp ne ptr %19, null
  br i1 %20, label %21, label %38

21:                                               ; preds = %14
  %22 = load ptr, ptr %2, align 8
  %23 = getelementptr inbounds nuw %struct.TypeCacheEntry, ptr %22, i32 0, i32 25
  %24 = load ptr, ptr %23, align 8
  %25 = getelementptr inbounds nuw %struct.TupleDescData, ptr %24, i32 0, i32 3
  %26 = load i32, ptr %25, align 4
  %27 = add i32 %26, -1
  store i32 %27, ptr %25, align 4
  %28 = icmp eq i32 %27, 0
  br i1 %28, label %29, label %33

29:                                               ; preds = %21
  %30 = load ptr, ptr %2, align 8
  %31 = getelementptr inbounds nuw %struct.TypeCacheEntry, ptr %30, i32 0, i32 25
  %32 = load ptr, ptr %31, align 8
  call void @FreeTupleDesc(ptr noundef %32)
  br label %33

33:                                               ; preds = %29, %21
  %34 = load ptr, ptr %2, align 8
  %35 = getelementptr inbounds nuw %struct.TypeCacheEntry, ptr %34, i32 0, i32 25
  store ptr null, ptr %35, align 8
  %36 = load ptr, ptr %2, align 8
  %37 = getelementptr inbounds nuw %struct.TypeCacheEntry, ptr %36, i32 0, i32 26
  store i64 0, ptr %37, align 8
  br label %38

38:                                               ; preds = %33, %14
  %39 = load ptr, ptr %2, align 8
  %40 = getelementptr inbounds nuw %struct.TypeCacheEntry, ptr %39, i32 0, i32 37
  %41 = load i32, ptr %40, align 8
  %42 = and i32 %41, 1572865
  store i32 %42, ptr %40, align 8
  %43 = load i8, ptr %3, align 1, !range !4, !noundef !5
  %44 = trunc i8 %43 to i1
  br i1 %44, label %45, label %47

45:                                               ; preds = %38
  %46 = load ptr, ptr %2, align 8
  call void @delete_rel_type_cache_if_needed(ptr noundef %46)
  br label %47

47:                                               ; preds = %45, %38
  call void @llvm.lifetime.end.p0(i64 1, ptr %3) #11
  ret void
}

; Function Attrs: nounwind uwtable
define internal void @TypeCacheRelCallback(i64 noundef %0, i32 noundef %1) #0 {
  %3 = alloca i64, align 8
  %4 = alloca i32, align 4
  %5 = alloca ptr, align 8
  %6 = alloca ptr, align 8
  %7 = alloca %struct.HASH_SEQ_STATUS, align 8
  store i64 %0, ptr %3, align 8
  store i32 %1, ptr %4, align 4
  call void @llvm.lifetime.start.p0(i64 8, ptr %5) #11
  %8 = load i32, ptr %4, align 4
  %9 = icmp ne i32 %8, 0
  br i1 %9, label %10, label %47

10:                                               ; preds = %2
  call void @llvm.lifetime.start.p0(i64 8, ptr %6) #11
  %11 = load ptr, ptr @RelIdToTypeIdCacheHash, align 8
  %12 = call ptr @hash_search(ptr noundef %11, ptr noundef %4, i32 noundef 0, ptr noundef null)
  store ptr %12, ptr %6, align 8
  %13 = load ptr, ptr %6, align 8
  %14 = icmp ne ptr %13, null
  br i1 %14, label %15, label %25

15:                                               ; preds = %10
  %16 = load ptr, ptr @TypeCacheHash, align 8
  %17 = load ptr, ptr %6, align 8
  %18 = getelementptr inbounds nuw %struct.RelIdToTypeIdCacheEntry, ptr %17, i32 0, i32 1
  %19 = call ptr @hash_search(ptr noundef %16, ptr noundef %18, i32 noundef 0, ptr noundef null)
  store ptr %19, ptr %5, align 8
  %20 = load ptr, ptr %5, align 8
  %21 = icmp ne ptr %20, null
  br i1 %21, label %22, label %24

22:                                               ; preds = %15
  %23 = load ptr, ptr %5, align 8
  call void @InvalidateCompositeTypeCacheEntry(ptr noundef %23)
  br label %24

24:                                               ; preds = %22, %15
  br label %25

25:                                               ; preds = %24, %10
  %26 = load ptr, ptr @firstDomainTypeEntry, align 8
  store ptr %26, ptr %5, align 8
  br label %27

27:                                               ; preds = %42, %25
  %28 = load ptr, ptr %5, align 8
  %29 = icmp ne ptr %28, null
  br i1 %29, label %30, label %46

30:                                               ; preds = %27
  %31 = load ptr, ptr %5, align 8
  %32 = getelementptr inbounds nuw %struct.TypeCacheEntry, ptr %31, i32 0, i32 37
  %33 = load i32, ptr %32, align 8
  %34 = and i32 %33, 1048576
  %35 = icmp ne i32 %34, 0
  br i1 %35, label %36, label %41

36:                                               ; preds = %30
  %37 = load ptr, ptr %5, align 8
  %38 = getelementptr inbounds nuw %struct.TypeCacheEntry, ptr %37, i32 0, i32 37
  %39 = load i32, ptr %38, align 8
  %40 = and i32 %39, 1572865
  store i32 %40, ptr %38, align 8
  br label %41

41:                                               ; preds = %36, %30
  br label %42

42:                                               ; preds = %41
  %43 = load ptr, ptr %5, align 8
  %44 = getelementptr inbounds nuw %struct.TypeCacheEntry, ptr %43, i32 0, i32 39
  %45 = load ptr, ptr %44, align 8
  store ptr %45, ptr %5, align 8
  br label %27, !llvm.loop !8

46:                                               ; preds = %27
  call void @llvm.lifetime.end.p0(i64 8, ptr %6) #11
  br label %81

47:                                               ; preds = %2
  call void @llvm.lifetime.start.p0(i64 32, ptr %7) #11
  %48 = load ptr, ptr @TypeCacheHash, align 8
  call void @hash_seq_init(ptr noundef %7, ptr noundef %48)
  br label %49

49:                                               ; preds = %79, %47
  %50 = call ptr @hash_seq_search(ptr noundef %7)
  store ptr %50, ptr %5, align 8
  %51 = icmp ne ptr %50, null
  br i1 %51, label %52, label %80

52:                                               ; preds = %49
  %53 = load ptr, ptr %5, align 8
  %54 = getelementptr inbounds nuw %struct.TypeCacheEntry, ptr %53, i32 0, i32 6
  %55 = load i8, ptr %54, align 1
  %56 = sext i8 %55 to i32
  %57 = icmp eq i32 %56, 99
  br i1 %57, label %58, label %60

58:                                               ; preds = %52
  %59 = load ptr, ptr %5, align 8
  call void @InvalidateCompositeTypeCacheEntry(ptr noundef %59)
  br label %79

60:                                               ; preds = %52
  %61 = load ptr, ptr %5, align 8
  %62 = getelementptr inbounds nuw %struct.TypeCacheEntry, ptr %61, i32 0, i32 6
  %63 = load i8, ptr %62, align 1
  %64 = sext i8 %63 to i32
  %65 = icmp eq i32 %64, 100
  br i1 %65, label %66, label %78

66:                                               ; preds = %60
  %67 = load ptr, ptr %5, align 8
  %68 = getelementptr inbounds nuw %struct.TypeCacheEntry, ptr %67, i32 0, i32 37
  %69 = load i32, ptr %68, align 8
  %70 = and i32 %69, 1048576
  %71 = icmp ne i32 %70, 0
  br i1 %71, label %72, label %77

72:                                               ; preds = %66
  %73 = load ptr, ptr %5, align 8
  %74 = getelementptr inbounds nuw %struct.TypeCacheEntry, ptr %73, i32 0, i32 37
  %75 = load i32, ptr %74, align 8
  %76 = and i32 %75, 1572865
  store i32 %76, ptr %74, align 8
  br label %77

77:                                               ; preds = %72, %66
  br label %78

78:                                               ; preds = %77, %60
  br label %79

79:                                               ; preds = %78, %58
  br label %49, !llvm.loop !9

80:                                               ; preds = %49
  call void @llvm.lifetime.end.p0(i64 32, ptr %7) #11
  br label %81

81:                                               ; preds = %80, %46
  call void @llvm.lifetime.end.p0(i64 8, ptr %5) #11
  ret void
}