; Function Attrs: nounwind uwtable
define internal void @TypeCacheRelCallback(i64 %0, i32 noundef %1) #0 {
  %3 = alloca i8, align 1
  %4 = alloca i8, align 1
  %5 = alloca i32, align 4
  %6 = alloca %struct.HASH_SEQ_STATUS, align 8
  store i32 %1, ptr %5, align 4
  %.not = icmp eq i32 %1, 0
  br i1 %.not, label %48, label %7

7:                                                ; preds = %2
  %8 = load ptr, ptr @RelIdToTypeIdCacheHash, align 8
  %9 = call ptr @hash_search(ptr noundef %8, ptr noundef nonnull %5, i32 noundef 0, ptr noundef null) #16
  %.not19 = icmp eq ptr %9, null
  br i1 %.not19, label %InvalidateCompositeTypeCacheEntry.exit, label %10

10:                                               ; preds = %7
  %11 = load ptr, ptr @TypeCacheHash, align 8
  %12 = getelementptr inbounds nuw i8, ptr %9, i64 4
  %13 = call ptr @hash_search(ptr noundef %11, ptr noundef nonnull %12, i32 noundef 0, ptr noundef null) #16
  %.not20 = icmp eq ptr %13, null
  br i1 %.not20, label %InvalidateCompositeTypeCacheEntry.exit, label %14

14:                                               ; preds = %10
  %15 = getelementptr inbounds nuw i8, ptr %13, i64 264
  %16 = load ptr, ptr %15, align 8
  %.not.i = icmp eq ptr %16, null
  br i1 %.not.i, label %27, label %17

17:                                               ; preds = %14
  %18 = getelementptr inbounds nuw i8, ptr %16, i64 12
  %19 = load i32, ptr %18, align 4
  %20 = add i32 %19, -1
  store i32 %20, ptr %18, align 4
  %21 = icmp eq i32 %20, 0
  br i1 %21, label %22, label %.thread10.i

22:                                               ; preds = %17
  %23 = load ptr, ptr %15, align 8
  call void @FreeTupleDesc(ptr noundef %23) #16
  br label %.thread10.i

.thread10.i:                                      ; preds = %22, %17
  %24 = getelementptr inbounds nuw i8, ptr %13, i64 464
  call void @llvm.memset.p0.i64(ptr noundef nonnull align 8 dereferenceable(16) %15, i8 0, i64 16, i1 false)
  %25 = load i32, ptr %24, align 8
  %26 = and i32 %25, 1572865
  store i32 %26, ptr %24, align 8
  br label %32

27:                                               ; preds = %14
  %28 = getelementptr inbounds nuw i8, ptr %13, i64 464
  %29 = load i32, ptr %28, align 8
  %30 = and i32 %29, -1572866
  %.not11.i = icmp eq i32 %30, 0
  %31 = and i32 %29, 1572865
  store i32 %31, ptr %28, align 8
  br i1 %.not11.i, label %InvalidateCompositeTypeCacheEntry.exit, label %32

32:                                               ; preds = %27, %.thread10.i
  %33 = phi i32 [ %26, %.thread10.i ], [ %31, %27 ]
  %34 = getelementptr inbounds nuw i8, ptr %13, i64 13
  %35 = load i8, ptr %34, align 1
  %.not.i.i = icmp eq i8 %35, 99
  %36 = and i32 %33, 1
  %or.cond.i.i = icmp eq i32 %36, 0
  %or.cond.i = select i1 %.not.i.i, i1 %or.cond.i.i, i1 false
  br i1 %or.cond.i, label %37, label %InvalidateCompositeTypeCacheEntry.exit

37:                                               ; preds = %32
  call void @llvm.lifetime.start.p0(i64 1, ptr nonnull %4) #16
  %38 = load ptr, ptr @RelIdToTypeIdCacheHash, align 8
  %39 = getelementptr inbounds nuw i8, ptr %13, i64 16
  %40 = call ptr @hash_search(ptr noundef %38, ptr noundef nonnull %39, i32 noundef 2, ptr noundef nonnull %4) #16
  call void @llvm.lifetime.end.p0(i64 1, ptr nonnull %4) #16
  br label %InvalidateCompositeTypeCacheEntry.exit

InvalidateCompositeTypeCacheEntry.exit:           ; preds = %37, %32, %27, %10, %7
  %.030 = load ptr, ptr @firstDomainTypeEntry, align 8
  %.not2131 = icmp eq ptr %.030, null
  br i1 %.not2131, label %.loopexit, label %.lr.ph

.lr.ph:                                           ; preds = %InvalidateCompositeTypeCacheEntry.exit, %46
  %.032 = phi ptr [ %.0, %46 ], [ %.030, %InvalidateCompositeTypeCacheEntry.exit ]
  %41 = getelementptr inbounds nuw i8, ptr %.032, i64 464
  %42 = load i32, ptr %41, align 8
  %43 = and i32 %42, 1048576
  %.not22 = icmp eq i32 %43, 0
  br i1 %.not22, label %46, label %44

44:                                               ; preds = %.lr.ph
  %45 = and i32 %42, 1572865
  store i32 %45, ptr %41, align 8
  br label %46

46:                                               ; preds = %.lr.ph, %44
  %47 = getelementptr inbounds nuw i8, ptr %.032, i64 480
  %.0 = load ptr, ptr %47, align 8
  %.not21 = icmp eq ptr %.0, null
  br i1 %.not21, label %.loopexit, label %.lr.ph, !llvm.loop !6

48:                                               ; preds = %2
  call void @llvm.lifetime.start.p0(i64 32, ptr nonnull %6) #16
  %49 = load ptr, ptr @TypeCacheHash, align 8
  call void @hash_seq_init(ptr noundef nonnull %6, ptr noundef %49) #16
  %50 = call ptr @hash_seq_search(ptr noundef nonnull %6) #16
  %.not1733 = icmp eq ptr %50, null
  br i1 %.not1733, label %._crit_edge, label %.lr.ph34

.lr.ph34:                                         ; preds = %48, %InvalidateCompositeTypeCacheEntry.exit29
  %51 = phi ptr [ %86, %InvalidateCompositeTypeCacheEntry.exit29 ], [ %50, %48 ]
  %52 = getelementptr inbounds nuw i8, ptr %51, i64 13
  %53 = load i8, ptr %52, align 1
  switch i8 %53, label %InvalidateCompositeTypeCacheEntry.exit29 [
    i8 99, label %54
    i8 100, label %80
  ]

54:                                               ; preds = %.lr.ph34
  %55 = getelementptr inbounds nuw i8, ptr %51, i64 264
  %56 = load ptr, ptr %55, align 8
  %.not.i23 = icmp eq ptr %56, null
  br i1 %.not.i23, label %68, label %57

57:                                               ; preds = %54
  %58 = getelementptr inbounds nuw i8, ptr %56, i64 12
  %59 = load i32, ptr %58, align 4
  %60 = add i32 %59, -1
  store i32 %60, ptr %58, align 4
  %61 = icmp eq i32 %60, 0
  br i1 %61, label %62, label %.thread10.i24

62:                                               ; preds = %57
  %63 = load ptr, ptr %55, align 8
  call void @FreeTupleDesc(ptr noundef %63) #16
  br label %.thread10.i24

.thread10.i24:                                    ; preds = %62, %57
  %64 = getelementptr inbounds nuw i8, ptr %51, i64 464
  call void @llvm.memset.p0.i64(ptr noundef nonnull align 8 dereferenceable(16) %55, i8 0, i64 16, i1 false)
  %65 = load i32, ptr %64, align 8
  %66 = and i32 %65, 1572865
  store i32 %66, ptr %64, align 8
  %.pre = load i8, ptr %52, align 1
  %67 = icmp eq i8 %.pre, 99
  br label %73

68:                                               ; preds = %54
  %69 = getelementptr inbounds nuw i8, ptr %51, i64 464
  %70 = load i32, ptr %69, align 8
  %71 = and i32 %70, -1572866
  %.not11.i28 = icmp eq i32 %71, 0
  %72 = and i32 %70, 1572865
  store i32 %72, ptr %69, align 8
  br i1 %.not11.i28, label %InvalidateCompositeTypeCacheEntry.exit29, label %73

73:                                               ; preds = %68, %.thread10.i24
  %.not.i.i25 = phi i1 [ %67, %.thread10.i24 ], [ true, %68 ]
  %74 = phi i32 [ %66, %.thread10.i24 ], [ %72, %68 ]
  %75 = and i32 %74, 1
  %or.cond.i.i26 = icmp eq i32 %75, 0
  %or.cond.i27 = select i1 %.not.i.i25, i1 %or.cond.i.i26, i1 false
  br i1 %or.cond.i27, label %76, label %InvalidateCompositeTypeCacheEntry.exit29

76:                                               ; preds = %73
  call void @llvm.lifetime.start.p0(i64 1, ptr nonnull %3) #16
  %77 = load ptr, ptr @RelIdToTypeIdCacheHash, align 8
  %78 = getelementptr inbounds nuw i8, ptr %51, i64 16
  %79 = call ptr @hash_search(ptr noundef %77, ptr noundef nonnull %78, i32 noundef 2, ptr noundef nonnull %3) #16
  call void @llvm.lifetime.end.p0(i64 1, ptr nonnull %3) #16
  br label %InvalidateCompositeTypeCacheEntry.exit29

80:                                               ; preds = %.lr.ph34
  %81 = getelementptr inbounds nuw i8, ptr %51, i64 464
  %82 = load i32, ptr %81, align 8
  %83 = and i32 %82, 1048576
  %.not18 = icmp eq i32 %83, 0
  br i1 %.not18, label %InvalidateCompositeTypeCacheEntry.exit29, label %84

84:                                               ; preds = %80
  %85 = and i32 %82, 1572865
  store i32 %85, ptr %81, align 8
  br label %InvalidateCompositeTypeCacheEntry.exit29

InvalidateCompositeTypeCacheEntry.exit29:         ; preds = %76, %73, %68, %.lr.ph34, %84, %80
  %86 = call ptr @hash_seq_search(ptr noundef nonnull %6) #16
  %.not17 = icmp eq ptr %86, null
  br i1 %.not17, label %._crit_edge, label %.lr.ph34, !llvm.loop !8

._crit_edge:                                      ; preds = %InvalidateCompositeTypeCacheEntry.exit29, %48
  call void @llvm.lifetime.end.p0(i64 32, ptr nonnull %6) #16
  br label %.loopexit

.loopexit:                                        ; preds = %46, %InvalidateCompositeTypeCacheEntry.exit, %._crit_edge
  ret void
}